target datalayout = "e-m:e-p270:32:32-p271:32:32-p272:64:64-i64:64-i128:128-f80:128-n8:16:32:64-S128"
target triple = "x86_64-pc-linux-gnu"

%struct.Fraig_NodeStruct_t_ = type { i32, i32, i32, i32, i32, i32, i32, ptr, ptr, ptr, ptr, ptr, ptr, ptr, ptr, i32, i32, ptr, ptr, ptr, ptr, ptr, ptr, ptr }
%struct.Fraig_ManStruct_t_ = type { ptr, ptr, ptr, ptr, ptr, ptr, ptr, ptr, ptr, i32, i32, i32, i32, i32, i32, i32, i32, i32, i32, i32, i32, i64, i32, i32, i32, i32, i32, ptr, ptr, ptr, ptr, ptr, i32, ptr, ptr, ptr, ptr, ptr, ptr, i32, ptr, ptr, ptr, ptr, i32, i32, i32, i32, i32, i32, i32, i32, i32, i32, i32, i32, i32, i32, i32, i32, i32, i32, i32, i64, i64, i64, i64, i64, i64, i64, i64, i64, i64, i64, i64 }
%struct.Fraig_NodeVecStruct_t_ = type { i32, i32, ptr }
%struct.timespec = type { i64, i64 }

@.str.4 = private unnamed_addr constant [10 x i8] c"%d(%d) - \00", align 1

; Function Attrs: inlinehint nounwind uwtable
define internal i64 @Abc_Clock() #4 {
  %1 = alloca i64, align 8
  %2 = alloca %struct.timespec, align 8
  %3 = alloca i32, align 4
  %4 = alloca i64, align 8
  call void @llvm.lifetime.start.p0(i64 16, ptr %2) #5
  %5 = call i32 @clock_gettime(i32 noundef 1, ptr noundef %2) #5
  %6 = icmp slt i32 %5, 0
  br i1 %6, label %7, label %8

7:                                                ; preds = %0
  store i64 -1, ptr %1, align 8
  store i32 1, ptr %3, align 4
  br label %19

8:                                                ; preds = %0
  call void @llvm.lifetime.start.p0(i64 8, ptr %4) #5
  %9 = getelementptr inbounds nuw %struct.timespec, ptr %2, i32 0, i32 0
  %10 = load i64, ptr %9, align 8, !tbaa !76
  %11 = mul nsw i64 %10, 1000000
  store i64 %11, ptr %4, align 8, !tbaa !35
  %12 = getelementptr inbounds nuw %struct.timespec, ptr %2, i32 0, i32 1
  %13 = load i64, ptr %12, align 8, !tbaa !78
  %14 = mul nsw i64 %13, 1000000
  %15 = sdiv i64 %14, 1000000000
  %16 = load i64, ptr %4, align 8, !tbaa !35
  %17 = add nsw i64 %16, %15
  store i64 %17, ptr %4, align 8, !tbaa !35
  %18 = load i64, ptr %4, align 8, !tbaa !35
  store i64 %18, ptr %1, align 8
  store i32 1, ptr %3, align 4
  call void @llvm.lifetime.end.p0(i64 8, ptr %4) #5
  br label %19

19:                                               ; preds = %8, %7
  call void @llvm.lifetime.end.p0(i64 16, ptr %2) #5
  %20 = load i64, ptr %1, align 8
  ret i64 %20
}

; Function Attrs: nounwind uwtable
define i32 @Fraig_NodeIsImplification(ptr noundef %0, ptr noundef %1, ptr noundef %2, i32 noundef %3) #0 {
  %5 = alloca i32, align 4
  %6 = alloca ptr, align 8
  %7 = alloca ptr, align 8
  %8 = alloca ptr, align 8
  %9 = alloca i32, align 4
  %10 = alloca i32, align 4
  %11 = alloca i32, align 4
  %12 = alloca i32, align 4
  %13 = alloca i32, align 4
  %14 = alloca i64, align 8
  %15 = alloca i32, align 4
  %16 = alloca i32, align 4
  store ptr %0, ptr %6, align 8, !tbaa !3
  store ptr %1, ptr %7, align 8, !tbaa !8
  store ptr %2, ptr %8, align 8, !tbaa !8
  store i32 %3, ptr %9, align 4, !tbaa !10
  call void @llvm.lifetime.start.p0(i64 4, ptr %10) #5
  call void @llvm.lifetime.start.p0(i64 4, ptr %11) #5
  call void @llvm.lifetime.start.p0(i64 4, ptr %12) #5
  call void @llvm.lifetime.start.p0(i64 4, ptr %13) #5
  call void @llvm.lifetime.start.p0(i64 8, ptr %14) #5
  call void @llvm.lifetime.start.p0(i64 4, ptr %15) #5
  store i32 0, ptr %15, align 4, !tbaa !10
  %17 = load ptr, ptr %6, align 8, !tbaa !3
  %18 = getelementptr inbounds nuw %struct.Fraig_ManStruct_t_, ptr %17, i32 0, i32 49
  %19 = load i32, ptr %18, align 4, !tbaa !69
  %20 = add nsw i32 %19, 1
  store i32 %20, ptr %18, align 4, !tbaa !69
  %21 = load ptr, ptr %6, align 8, !tbaa !3
  %22 = getelementptr inbounds nuw %struct.Fraig_ManStruct_t_, ptr %21, i32 0, i32 37
  %23 = load ptr, ptr %22, align 8, !tbaa !25
  %24 = icmp eq ptr %23, null
  br i1 %24, label %25, label %27

25:                                               ; preds = %4
  %26 = load ptr, ptr %6, align 8, !tbaa !3
  call void @Fraig_ManCreateSolver(ptr noundef %26)
  br label %27

27:                                               ; preds = %25, %4
  %28 = load ptr, ptr %6, align 8, !tbaa !3
  %29 = getelementptr inbounds nuw %struct.Fraig_ManStruct_t_, ptr %28, i32 0, i32 37
  %30 = load ptr, ptr %29, align 8, !tbaa !25
  %31 = call i32 @Msat_SolverReadVarNum(ptr noundef %30)
  store i32 %31, ptr %12, align 4, !tbaa !10
  br label %32

32:                                               ; preds = %56, %27
  %33 = load i32, ptr %12, align 4, !tbaa !10
  %34 = load ptr, ptr %6, align 8, !tbaa !3
  %35 = getelementptr inbounds nuw %struct.Fraig_ManStruct_t_, ptr %34, i32 0, i32 1
  %36 = load ptr, ptr %35, align 8, !tbaa !26
  %37 = getelementptr inbounds nuw %struct.Fraig_NodeVecStruct_t_, ptr %36, i32 0, i32 1
  %38 = load i32, ptr %37, align 4, !tbaa !27
  %39 = icmp slt i32 %33, %38
  br i1 %39, label %40, label %59

40:                                               ; preds = %32
  %41 = load ptr, ptr %6, align 8, !tbaa !3
  %42 = getelementptr inbounds nuw %struct.Fraig_ManStruct_t_, ptr %41, i32 0, i32 37
  %43 = load ptr, ptr %42, align 8, !tbaa !25
  %44 = load ptr, ptr %6, align 8, !tbaa !3
  %45 = getelementptr inbounds nuw %struct.Fraig_ManStruct_t_, ptr %44, i32 0, i32 1
  %46 = load ptr, ptr %45, align 8, !tbaa !26
  %47 = getelementptr inbounds nuw %struct.Fraig_NodeVecStruct_t_, ptr %46, i32 0, i32 2
  %48 = load ptr, ptr %47, align 8, !tbaa !30
  %49 = load i32, ptr %12, align 4, !tbaa !10
  %50 = sext i32 %49 to i64
  %51 = getelementptr inbounds ptr, ptr %48, i64 %50
  %52 = load ptr, ptr %51, align 8, !tbaa !8
  %53 = getelementptr inbounds nuw %struct.Fraig_NodeStruct_t_, ptr %52, i32 0, i32 2
  %54 = load i32, ptr %53, align 8, !tbaa !31
  %55 = call i32 @Msat_SolverAddVar(ptr noundef %43, i32 noundef %54)
  br label %56

56:                                               ; preds = %40
  %57 = load i32, ptr %12, align 4, !tbaa !10
  %58 = add nsw i32 %57, 1
  store i32 %58, ptr %12, align 4, !tbaa !10
  br label %32, !llvm.loop !70

59:                                               ; preds = %32
  %60 = call i64 @Abc_Clock()
  store i64 %60, ptr %14, align 8, !tbaa !35
  %61 = load ptr, ptr %6, align 8, !tbaa !3
  %62 = load ptr, ptr %7, align 8, !tbaa !8
  %63 = load ptr, ptr %8, align 8, !tbaa !8
  call void @Fraig_OrderVariables(ptr noundef %61, ptr noundef %62, ptr noundef %63)
  %64 = call i64 @Abc_Clock()
  %65 = load i64, ptr %14, align 8, !tbaa !35
  %66 = sub nsw i64 %64, %65
  %67 = load ptr, ptr %6, align 8, !tbaa !3
  %68 = getelementptr inbounds nuw %struct.Fraig_ManStruct_t_, ptr %67, i32 0, i32 65
  %69 = load i64, ptr %68, align 8, !tbaa !36
  %70 = add nsw i64 %69, %66
  store i64 %70, ptr %68, align 8, !tbaa !36
  %71 = load i32, ptr %15, align 4, !tbaa !10
  %72 = icmp ne i32 %71, 0
  br i1 %72, label %73, label %84

73:                                               ; preds = %59
  %74 = load ptr, ptr %6, align 8, !tbaa !3
  %75 = load ptr, ptr %6, align 8, !tbaa !3
  %76 = getelementptr inbounds nuw %struct.Fraig_ManStruct_t_, ptr %75, i32 0, i32 41
  %77 = load ptr, ptr %76, align 8, !tbaa !37
  %78 = call i32 @Fraig_CountPis(ptr noundef %74, ptr noundef %77)
  %79 = load ptr, ptr %6, align 8, !tbaa !3
  %80 = getelementptr inbounds nuw %struct.Fraig_ManStruct_t_, ptr %79, i32 0, i32 41
  %81 = load ptr, ptr %80, align 8, !tbaa !37
  %82 = call i32 @Msat_IntVecReadSize(ptr noundef %81)
  %83 = call i32 (ptr, ...) @printf(ptr noundef @.str.4, i32 noundef %78, i32 noundef %82)
  br label %84

84:                                               ; preds = %73, %59
  %85 = load ptr, ptr %7, align 8, !tbaa !8
  %86 = load ptr, ptr %8, align 8, !tbaa !8
  %87 = call i32 @Fraig_NodeComparePhase(ptr noundef %85, ptr noundef %86)
  store i32 %87, ptr %13, align 4, !tbaa !10
  %88 = load ptr, ptr %6, align 8, !tbaa !3
  %89 = getelementptr inbounds nuw %struct.Fraig_ManStruct_t_, ptr %88, i32 0, i32 37
  %90 = load ptr, ptr %89, align 8, !tbaa !25
  %91 = load ptr, ptr %6, align 8, !tbaa !3
  %92 = getelementptr inbounds nuw %struct.Fraig_ManStruct_t_, ptr %91, i32 0, i32 41
  %93 = load ptr, ptr %92, align 8, !tbaa !37
  call void @Msat_SolverPrepare(ptr noundef %90, ptr noundef %93)
  %94 = load ptr, ptr %6, align 8, !tbaa !3
  %95 = getelementptr inbounds nuw %struct.Fraig_ManStruct_t_, ptr %94, i32 0, i32 38
  %96 = load ptr, ptr %95, align 8, !tbaa !38
  call void @Msat_IntVecClear(ptr noundef %96)
  %97 = load ptr, ptr %6, align 8, !tbaa !3
  %98 = getelementptr inbounds nuw %struct.Fraig_ManStruct_t_, ptr %97, i32 0, i32 38
  %99 = load ptr, ptr %98, align 8, !tbaa !38
  %100 = load ptr, ptr %7, align 8, !tbaa !8
  %101 = getelementptr inbounds nuw %struct.Fraig_NodeStruct_t_, ptr %100, i32 0, i32 0
  %102 = load i32, ptr %101, align 8, !tbaa !39
  %103 = mul nsw i32 2, %102
  %104 = add nsw i32 %103, 0
  call void @Msat_IntVecPush(ptr noundef %99, i32 noundef %104)
  %105 = load ptr, ptr %6, align 8, !tbaa !3
  %106 = getelementptr inbounds nuw %struct.Fraig_ManStruct_t_, ptr %105, i32 0, i32 38
  %107 = load ptr, ptr %106, align 8, !tbaa !38
  %108 = load ptr, ptr %8, align 8, !tbaa !8
  %109 = getelementptr inbounds nuw %struct.Fraig_NodeStruct_t_, ptr %108, i32 0, i32 0
  %110 = load i32, ptr %109, align 8, !tbaa !39
  %111 = mul nsw i32 2, %110
  %112 = load i32, ptr %13, align 4, !tbaa !10
  %113 = icmp ne i32 %112, 0
  %114 = xor i1 %113, true
  %115 = zext i1 %114 to i32
  %116 = add nsw i32 %111, %115
  call void @Msat_IntVecPush(ptr noundef %107, i32 noundef %116)
  %117 = call i64 @Abc_Clock()
  store i64 %117, ptr %14, align 8, !tbaa !35
  %118 = load ptr, ptr %6, align 8, !tbaa !3
  %119 = getelementptr inbounds nuw %struct.Fraig_ManStruct_t_, ptr %118, i32 0, i32 37
  %120 = load ptr, ptr %119, align 8, !tbaa !25
  %121 = load ptr, ptr %6, align 8, !tbaa !3
  %122 = getelementptr inbounds nuw %struct.Fraig_ManStruct_t_, ptr %121, i32 0, i32 38
  %123 = load ptr, ptr %122, align 8, !tbaa !38
  %124 = load i32, ptr %9, align 4, !tbaa !10
  %125 = call i32 @Msat_SolverSolve(ptr noundef %120, ptr noundef %123, i32 noundef %124, i32 noundef 1000000)
  store i32 %125, ptr %11, align 4, !tbaa !10
  %126 = call i64 @Abc_Clock()
  %127 = load i64, ptr %14, align 8, !tbaa !35
  %128 = sub nsw i64 %126, %127
  %129 = load ptr, ptr %6, align 8, !tbaa !3
  %130 = getelementptr inbounds nuw %struct.Fraig_ManStruct_t_, ptr %129, i32 0, i32 68
  %131 = load i64, ptr %130, align 8, !tbaa !40
  %132 = add nsw i64 %131, %128
  store i64 %132, ptr %130, align 8, !tbaa !40
  %133 = load i32, ptr %11, align 4, !tbaa !10
  %134 = icmp eq i32 %133, -1
  br i1 %134, label %135, label %167

135:                                              ; preds = %84
  %136 = load i32, ptr %15, align 4, !tbaa !10
  %137 = icmp ne i32 %136, 0
  br i1 %137, label %138, label %139

138:                                              ; preds = %135
  br label %139

139:                                              ; preds = %138, %135
  %140 = load ptr, ptr %6, align 8, !tbaa !3
  %141 = getelementptr inbounds nuw %struct.Fraig_ManStruct_t_, ptr %140, i32 0, i32 38
  %142 = load ptr, ptr %141, align 8, !tbaa !38
  call void @Msat_IntVecClear(ptr noundef %142)
  %143 = load ptr, ptr %6, align 8, !tbaa !3
  %144 = getelementptr inbounds nuw %struct.Fraig_ManStruct_t_, ptr %143, i32 0, i32 38
  %145 = load ptr, ptr %144, align 8, !tbaa !38
  %146 = load ptr, ptr %7, align 8, !tbaa !8
  %147 = getelementptr inbounds nuw %struct.Fraig_NodeStruct_t_, ptr %146, i32 0, i32 0
  %148 = load i32, ptr %147, align 8, !tbaa !39
  %149 = mul nsw i32 2, %148
  %150 = add nsw i32 %149, 1
  call void @Msat_IntVecPush(ptr noundef %145, i32 noundef %150)
  %151 = load ptr, ptr %6, align 8, !tbaa !3
  %152 = getelementptr inbounds nuw %struct.Fraig_ManStruct_t_, ptr %151, i32 0, i32 38
  %153 = load ptr, ptr %152, align 8, !tbaa !38
  %154 = load ptr, ptr %8, align 8, !tbaa !8
  %155 = getelementptr inbounds nuw %struct.Fraig_NodeStruct_t_, ptr %154, i32 0, i32 0
  %156 = load i32, ptr %155, align 8, !tbaa !39
  %157 = mul nsw i32 2, %156
  %158 = load i32, ptr %13, align 4, !tbaa !10
  %159 = add nsw i32 %157, %158
  call void @Msat_IntVecPush(ptr noundef %153, i32 noundef %159)
  %160 = load ptr, ptr %6, align 8, !tbaa !3
  %161 = getelementptr inbounds nuw %struct.Fraig_ManStruct_t_, ptr %160, i32 0, i32 37
  %162 = load ptr, ptr %161, align 8, !tbaa !25
  %163 = load ptr, ptr %6, align 8, !tbaa !3
  %164 = getelementptr inbounds nuw %struct.Fraig_ManStruct_t_, ptr %163, i32 0, i32 38
  %165 = load ptr, ptr %164, align 8, !tbaa !38
  %166 = call i32 @Msat_SolverAddClause(ptr noundef %162, ptr noundef %165)
  store i32 %166, ptr %10, align 4, !tbaa !10
  store i32 1, ptr %5, align 4
  store i32 1, ptr %16, align 4
  br label %201

167:                                              ; preds = %84
  %168 = load i32, ptr %11, align 4, !tbaa !10
  %169 = icmp eq i32 %168, 1
  br i1 %169, label %170, label %189

170:                                              ; preds = %167
  %171 = load i32, ptr %15, align 4, !tbaa !10
  %172 = icmp ne i32 %171, 0
  br i1 %172, label %173, label %174

173:                                              ; preds = %170
  br label %174

174:                                              ; preds = %173, %170
  %175 = load ptr, ptr %6, align 8, !tbaa !3
  %176 = load ptr, ptr %6, align 8, !tbaa !3
  %177 = getelementptr inbounds nuw %struct.Fraig_ManStruct_t_, ptr %176, i32 0, i32 37
  %178 = load ptr, ptr %177, align 8, !tbaa !25
  %179 = call ptr @Msat_SolverReadModelArray(ptr noundef %178)
  %180 = load ptr, ptr %6, align 8, !tbaa !3
  %181 = getelementptr inbounds nuw %struct.Fraig_ManStruct_t_, ptr %180, i32 0, i32 41
  %182 = load ptr, ptr %181, align 8, !tbaa !37
  %183 = load ptr, ptr %7, align 8, !tbaa !8
  %184 = load ptr, ptr %8, align 8, !tbaa !8
  call void @Fraig_FeedBack(ptr noundef %175, ptr noundef %179, ptr noundef %182, ptr noundef %183, ptr noundef %184)
  %185 = load ptr, ptr %6, align 8, !tbaa !3
  %186 = getelementptr inbounds nuw %struct.Fraig_ManStruct_t_, ptr %185, i32 0, i32 51
  %187 = load i32, ptr %186, align 4, !tbaa !71
  %188 = add nsw i32 %187, 1
  store i32 %188, ptr %186, align 4, !tbaa !71
  store i32 0, ptr %5, align 4
  store i32 1, ptr %16, align 4
  br label %201

189:                                              ; preds = %167
  %190 = call i64 @Abc_Clock()
  %191 = load i64, ptr %14, align 8, !tbaa !35
  %192 = sub nsw i64 %190, %191
  %193 = load ptr, ptr %6, align 8, !tbaa !3
  %194 = getelementptr inbounds nuw %struct.Fraig_ManStruct_t_, ptr %193, i32 0, i32 73
  %195 = load i64, ptr %194, align 8, !tbaa !42
  %196 = add nsw i64 %195, %192
  store i64 %196, ptr %194, align 8, !tbaa !42
  %197 = load ptr, ptr %6, align 8, !tbaa !3
  %198 = getelementptr inbounds nuw %struct.Fraig_ManStruct_t_, ptr %197, i32 0, i32 52
  %199 = load i32, ptr %198, align 8, !tbaa !72
  %200 = add nsw i32 %199, 1
  store i32 %200, ptr %198, align 8, !tbaa !72
  store i32 0, ptr %5, align 4
  store i32 1, ptr %16, align 4
  br label %201

201:                                              ; preds = %189, %174, %139
  call void @llvm.lifetime.end.p0(i64 4, ptr %15) #5
  call void @llvm.lifetime.end.p0(i64 8, ptr %14) #5
  call void @llvm.lifetime.end.p0(i64 4, ptr %13) #5
  call void @llvm.lifetime.end.p0(i64 4, ptr %12) #5
  call void @llvm.lifetime.end.p0(i64 4, ptr %11) #5
  call void @llvm.lifetime.end.p0(i64 4, ptr %10) #5
  %202 = load i32, ptr %5, align 4
  ret i32 %202
}