; Function Attrs: nounwind uwtable
define range(i32 0, 2) i32 @Fraig_NodeIsImplification(ptr noundef %0, ptr noundef %1, ptr noundef %2, i32 noundef %3) local_unnamed_addr #0 {
  %5 = alloca %struct.timespec, align 8
  %6 = alloca %struct.timespec, align 8
  %7 = alloca %struct.timespec, align 8
  %8 = alloca %struct.timespec, align 8
  %9 = alloca %struct.timespec, align 8
  %10 = getelementptr inbounds nuw i8, ptr %0, i64 308
  %11 = load i32, ptr %10, align 4, !tbaa !73
  %12 = add nsw i32 %11, 1
  store i32 %12, ptr %10, align 4, !tbaa !73
  %13 = getelementptr inbounds nuw i8, ptr %0, i64 232
  %14 = load ptr, ptr %13, align 8, !tbaa !21
  %15 = icmp eq ptr %14, null
  br i1 %15, label %16, label %17

16:                                               ; preds = %4
  tail call void @Fraig_ManCreateSolver(ptr noundef nonnull %0) #10
  %.pre = load ptr, ptr %13, align 8, !tbaa !21
  br label %17

17:                                               ; preds = %16, %4
  %18 = phi ptr [ %.pre, %16 ], [ %14, %4 ]
  %19 = tail call i32 @Msat_SolverReadVarNum(ptr noundef %18) #10
  %20 = getelementptr inbounds nuw i8, ptr %0, i64 8
  %21 = load ptr, ptr %20, align 8, !tbaa !22
  %22 = getelementptr inbounds nuw i8, ptr %21, i64 4
  %23 = load i32, ptr %22, align 4, !tbaa !23
  %24 = icmp slt i32 %19, %23
  br i1 %24, label %.lr.ph.preheader, label %._crit_edge

.lr.ph.preheader:                                 ; preds = %17
  %25 = sext i32 %19 to i64
  br label %.lr.ph

.lr.ph:                                           ; preds = %.lr.ph.preheader, %.lr.ph
  %indvars.iv = phi i64 [ %25, %.lr.ph.preheader ], [ %indvars.iv.next, %.lr.ph ]
  %26 = phi ptr [ %21, %.lr.ph.preheader ], [ %35, %.lr.ph ]
  %27 = load ptr, ptr %13, align 8, !tbaa !21
  %28 = getelementptr inbounds nuw i8, ptr %26, i64 8
  %29 = load ptr, ptr %28, align 8, !tbaa !26
  %30 = getelementptr inbounds ptr, ptr %29, i64 %indvars.iv
  %31 = load ptr, ptr %30, align 8, !tbaa !27
  %32 = getelementptr inbounds nuw i8, ptr %31, i64 8
  %33 = load i32, ptr %32, align 8, !tbaa !28
  %34 = tail call i32 @Msat_SolverAddVar(ptr noundef %27, i32 noundef %33) #10
  %indvars.iv.next = add nsw i64 %indvars.iv, 1
  %35 = load ptr, ptr %20, align 8, !tbaa !22
  %36 = getelementptr inbounds nuw i8, ptr %35, i64 4
  %37 = load i32, ptr %36, align 4, !tbaa !23
  %38 = sext i32 %37 to i64
  %39 = icmp slt i64 %indvars.iv.next, %38
  br i1 %39, label %.lr.ph, label %._crit_edge, !llvm.loop !74

._crit_edge:                                      ; preds = %.lr.ph, %17
  call void @llvm.lifetime.start.p0(i64 16, ptr nonnull %9) #10
  %40 = call i32 @clock_gettime(i32 noundef 1, ptr noundef nonnull %9) #10
  %41 = icmp slt i32 %40, 0
  br i1 %41, label %Abc_Clock.exit, label %42

42:                                               ; preds = %._crit_edge
  %43 = load i64, ptr %9, align 8, !tbaa !33
  %.neg65 = mul i64 %43, -1000000
  %44 = getelementptr inbounds nuw i8, ptr %9, i64 8
  %45 = load i64, ptr %44, align 8, !tbaa !35
  %.neg = sdiv i64 %45, -1000
  %.neg66 = add i64 %.neg, %.neg65
  br label %Abc_Clock.exit

Abc_Clock.exit:                                   ; preds = %._crit_edge, %42
  %.0.i.neg = phi i64 [ %.neg66, %42 ], [ 1, %._crit_edge ]
  call void @llvm.lifetime.end.p0(i64 16, ptr nonnull %9) #10
  call fastcc void @Fraig_OrderVariables(ptr noundef nonnull %0, ptr noundef %1, ptr noundef %2)
  call void @llvm.lifetime.start.p0(i64 16, ptr nonnull %8) #10
  %46 = call i32 @clock_gettime(i32 noundef 1, ptr noundef nonnull %8) #10
  %47 = icmp slt i32 %46, 0
  br i1 %47, label %Abc_Clock.exit58, label %48

48:                                               ; preds = %Abc_Clock.exit
  %49 = load i64, ptr %8, align 8, !tbaa !33
  %50 = mul nsw i64 %49, 1000000
  %51 = getelementptr inbounds nuw i8, ptr %8, i64 8
  %52 = load i64, ptr %51, align 8, !tbaa !35
  %53 = sdiv i64 %52, 1000
  %54 = add nsw i64 %53, %50
  br label %Abc_Clock.exit58

Abc_Clock.exit58:                                 ; preds = %Abc_Clock.exit, %48
  %.0.i57 = phi i64 [ %54, %48 ], [ -1, %Abc_Clock.exit ]
  call void @llvm.lifetime.end.p0(i64 16, ptr nonnull %8) #10
  %55 = add i64 %.0.i57, %.0.i.neg
  %56 = getelementptr inbounds nuw i8, ptr %0, i64 384
  %57 = load i64, ptr %56, align 8, !tbaa !36
  %58 = add nsw i64 %55, %57
  store i64 %58, ptr %56, align 8, !tbaa !36
  %59 = call i32 @Fraig_NodeComparePhase(ptr noundef %1, ptr noundef %2) #10
  %60 = load ptr, ptr %13, align 8, !tbaa !21
  %61 = getelementptr inbounds nuw i8, ptr %0, i64 264
  %62 = load ptr, ptr %61, align 8, !tbaa !37
  call void @Msat_SolverPrepare(ptr noundef %60, ptr noundef %62) #10
  %63 = getelementptr inbounds nuw i8, ptr %0, i64 240
  %64 = load ptr, ptr %63, align 8, !tbaa !42
  call void @Msat_IntVecClear(ptr noundef %64) #10
  %65 = load ptr, ptr %63, align 8, !tbaa !42
  %66 = load i32, ptr %1, align 8, !tbaa !38
  %67 = shl nsw i32 %66, 1
  call void @Msat_IntVecPush(ptr noundef %65, i32 noundef %67) #10
  %68 = load ptr, ptr %63, align 8, !tbaa !42
  %69 = load i32, ptr %2, align 8, !tbaa !38
  %70 = shl nsw i32 %69, 1
  %.not = icmp eq i32 %59, 0
  %71 = zext i1 %.not to i32
  %72 = or disjoint i32 %70, %71
  call void @Msat_IntVecPush(ptr noundef %68, i32 noundef %72) #10
  call void @llvm.lifetime.start.p0(i64 16, ptr nonnull %7) #10
  %73 = call i32 @clock_gettime(i32 noundef 1, ptr noundef nonnull %7) #10
  %74 = icmp slt i32 %73, 0
  br i1 %74, label %Abc_Clock.exit60, label %75

75:                                               ; preds = %Abc_Clock.exit58
  %76 = load i64, ptr %7, align 8, !tbaa !33
  %.neg69 = mul i64 %76, -1000000
  %77 = getelementptr inbounds nuw i8, ptr %7, i64 8
  %78 = load i64, ptr %77, align 8, !tbaa !35
  %.neg68 = sdiv i64 %78, -1000
  %.neg70 = add i64 %.neg68, %.neg69
  br label %Abc_Clock.exit60

Abc_Clock.exit60:                                 ; preds = %Abc_Clock.exit58, %75
  %.0.i59.neg71 = phi i64 [ %.neg70, %75 ], [ 1, %Abc_Clock.exit58 ]
  call void @llvm.lifetime.end.p0(i64 16, ptr nonnull %7) #10
  %79 = load ptr, ptr %13, align 8, !tbaa !21
  %80 = load ptr, ptr %63, align 8, !tbaa !42
  %81 = call i32 @Msat_SolverSolve(ptr noundef %79, ptr noundef %80, i32 noundef %3, i32 noundef 1000000) #10
  call void @llvm.lifetime.start.p0(i64 16, ptr nonnull %6) #10
  %82 = call i32 @clock_gettime(i32 noundef 1, ptr noundef nonnull %6) #10
  %83 = icmp slt i32 %82, 0
  br i1 %83, label %Abc_Clock.exit62, label %84

84:                                               ; preds = %Abc_Clock.exit60
  %85 = load i64, ptr %6, align 8, !tbaa !33
  %86 = mul nsw i64 %85, 1000000
  %87 = getelementptr inbounds nuw i8, ptr %6, i64 8
  %88 = load i64, ptr %87, align 8, !tbaa !35
  %89 = sdiv i64 %88, 1000
  %90 = add nsw i64 %89, %86
  br label %Abc_Clock.exit62

Abc_Clock.exit62:                                 ; preds = %Abc_Clock.exit60, %84
  %.0.i61 = phi i64 [ %90, %84 ], [ -1, %Abc_Clock.exit60 ]
  call void @llvm.lifetime.end.p0(i64 16, ptr nonnull %6) #10
  %91 = add i64 %.0.i61, %.0.i59.neg71
  %92 = getelementptr inbounds nuw i8, ptr %0, i64 408
  %93 = load i64, ptr %92, align 8, !tbaa !43
  %94 = add nsw i64 %91, %93
  store i64 %94, ptr %92, align 8, !tbaa !43
  switch i32 %81, label %115 [
    i32 -1, label %95
    i32 1, label %108
  ]

95:                                               ; preds = %Abc_Clock.exit62
  %96 = load ptr, ptr %63, align 8, !tbaa !42
  call void @Msat_IntVecClear(ptr noundef %96) #10
  %97 = load ptr, ptr %63, align 8, !tbaa !42
  %98 = load i32, ptr %1, align 8, !tbaa !38
  %99 = shl nsw i32 %98, 1
  %100 = or disjoint i32 %99, 1
  call void @Msat_IntVecPush(ptr noundef %97, i32 noundef %100) #10
  %101 = load ptr, ptr %63, align 8, !tbaa !42
  %102 = load i32, ptr %2, align 8, !tbaa !38
  %103 = shl nsw i32 %102, 1
  %104 = add nsw i32 %103, %59
  call void @Msat_IntVecPush(ptr noundef %101, i32 noundef %104) #10
  %105 = load ptr, ptr %13, align 8, !tbaa !21
  %106 = load ptr, ptr %63, align 8, !tbaa !42
  %107 = call i32 @Msat_SolverAddClause(ptr noundef %105, ptr noundef %106) #10
  br label %132

108:                                              ; preds = %Abc_Clock.exit62
  %109 = load ptr, ptr %13, align 8, !tbaa !21
  %110 = call ptr @Msat_SolverReadModelArray(ptr noundef %109) #10
  %111 = load ptr, ptr %61, align 8, !tbaa !37
  call void @Fraig_FeedBack(ptr noundef nonnull %0, ptr noundef %110, ptr noundef %111, ptr noundef nonnull %1, ptr noundef nonnull %2) #10
  %112 = getelementptr inbounds nuw i8, ptr %0, i64 316
  %113 = load i32, ptr %112, align 4, !tbaa !75
  %114 = add nsw i32 %113, 1
  store i32 %114, ptr %112, align 4, !tbaa !75
  br label %132

115:                                              ; preds = %Abc_Clock.exit62
  call void @llvm.lifetime.start.p0(i64 16, ptr nonnull %5) #10
  %116 = call i32 @clock_gettime(i32 noundef 1, ptr noundef nonnull %5) #10
  %117 = icmp slt i32 %116, 0
  br i1 %117, label %Abc_Clock.exit64, label %118

118:                                              ; preds = %115
  %119 = load i64, ptr %5, align 8, !tbaa !33
  %120 = mul nsw i64 %119, 1000000
  %121 = getelementptr inbounds nuw i8, ptr %5, i64 8
  %122 = load i64, ptr %121, align 8, !tbaa !35
  %123 = sdiv i64 %122, 1000
  %124 = add nsw i64 %123, %120
  br label %Abc_Clock.exit64

Abc_Clock.exit64:                                 ; preds = %115, %118
  %.0.i63 = phi i64 [ %124, %118 ], [ -1, %115 ]
  call void @llvm.lifetime.end.p0(i64 16, ptr nonnull %5) #10
  %125 = add i64 %.0.i63, %.0.i59.neg71
  %126 = getelementptr inbounds nuw i8, ptr %0, i64 448
  %127 = load i64, ptr %126, align 8, !tbaa !46
  %128 = add nsw i64 %125, %127
  store i64 %128, ptr %126, align 8, !tbaa !46
  %129 = getelementptr inbounds nuw i8, ptr %0, i64 320
  %130 = load i32, ptr %129, align 8, !tbaa !76
  %131 = add nsw i32 %130, 1
  store i32 %131, ptr %129, align 8, !tbaa !76
  br label %132

132:                                              ; preds = %Abc_Clock.exit64, %108, %95
  %.0 = phi i32 [ 1, %95 ], [ 0, %108 ], [ 0, %Abc_Clock.exit64 ]
  ret i32 %.0
}